target datalayout = "e-m:e-p270:32:32-p271:32:32-p272:64:64-i64:64-i128:128-f80:128-n8:16:32:64-S128"
target triple = "x86_64-pc-linux-gnu"

@.str.18 = private unnamed_addr constant [9 x i8] c"filename\00", align 1
@.str.35 = private unnamed_addr constant [5 x i8] c"name\00", align 1
@.str.114 = private unnamed_addr constant [9 x i8] c"boundary\00", align 1
@.str.115 = private unnamed_addr constant [9 x i8] c"protocol\00", align 1
@.str.116 = private unnamed_addr constant [3 x i8] c"id\00", align 1
@.str.117 = private unnamed_addr constant [7 x i8] c"number\00", align 1
@.str.118 = private unnamed_addr constant [6 x i8] c"total\00", align 1
@.str.119 = private unnamed_addr constant [5 x i8] c"type\00", align 1
@.str.120 = private unnamed_addr constant [35 x i8] c"Discarding unwanted argument '%s'\0A\00", align 1

; Function Attrs: nounwind uwtable
define internal i32 @usefulArg(ptr noundef %0) #0 {
  %2 = alloca i32, align 4
  %3 = alloca ptr, align 8
  store ptr %0, ptr %3, align 8
  %4 = load ptr, ptr %3, align 8
  %5 = call i32 @strncasecmp(ptr noundef %4, ptr noundef @.str.35, i64 noundef 4) #13
  %6 = icmp ne i32 %5, 0
  br i1 %6, label %7, label %37

7:                                                ; preds = %1
  %8 = load ptr, ptr %3, align 8
  %9 = call i32 @strncasecmp(ptr noundef %8, ptr noundef @.str.18, i64 noundef 8) #13
  %10 = icmp ne i32 %9, 0
  br i1 %10, label %11, label %37

11:                                               ; preds = %7
  %12 = load ptr, ptr %3, align 8
  %13 = call i32 @strncasecmp(ptr noundef %12, ptr noundef @.str.114, i64 noundef 8) #13
  %14 = icmp ne i32 %13, 0
  br i1 %14, label %15, label %37

15:                                               ; preds = %11
  %16 = load ptr, ptr %3, align 8
  %17 = call i32 @strncasecmp(ptr noundef %16, ptr noundef @.str.115, i64 noundef 8) #13
  %18 = icmp ne i32 %17, 0
  br i1 %18, label %19, label %37

19:                                               ; preds = %15
  %20 = load ptr, ptr %3, align 8
  %21 = call i32 @strncasecmp(ptr noundef %20, ptr noundef @.str.116, i64 noundef 2) #13
  %22 = icmp ne i32 %21, 0
  br i1 %22, label %23, label %37

23:                                               ; preds = %19
  %24 = load ptr, ptr %3, align 8
  %25 = call i32 @strncasecmp(ptr noundef %24, ptr noundef @.str.117, i64 noundef 6) #13
  %26 = icmp ne i32 %25, 0
  br i1 %26, label %27, label %37

27:                                               ; preds = %23
  %28 = load ptr, ptr %3, align 8
  %29 = call i32 @strncasecmp(ptr noundef %28, ptr noundef @.str.118, i64 noundef 5) #13
  %30 = icmp ne i32 %29, 0
  br i1 %30, label %31, label %37

31:                                               ; preds = %27
  %32 = load ptr, ptr %3, align 8
  %33 = call i32 @strncasecmp(ptr noundef %32, ptr noundef @.str.119, i64 noundef 4) #13
  %34 = icmp ne i32 %33, 0
  br i1 %34, label %35, label %37

35:                                               ; preds = %31
  %36 = load ptr, ptr %3, align 8
  call void (ptr, ...) @cli_dbgmsg(ptr noundef @.str.120, ptr noundef %36)
  store i32 0, ptr %2, align 4
  br label %38

37:                                               ; preds = %31, %27, %23, %19, %15, %11, %7, %1
  store i32 1, ptr %2, align 4
  br label %38

38:                                               ; preds = %37, %35
  %39 = load i32, ptr %2, align 4
  ret i32 %39
}