; Function Attrs: nounwind uwtable
define internal fastcc noundef i32 @usefulArg(ptr noundef %0) unnamed_addr #2 {
  %2 = tail call i32 @strncasecmp(ptr noundef %0, ptr noundef nonnull @.str.35, i64 noundef 4) #23
  %.not = icmp eq i32 %2, 0
  br i1 %.not, label %18, label %3

3:                                                ; preds = %1
  %4 = tail call i32 @strncasecmp(ptr noundef %0, ptr noundef nonnull @.str.18, i64 noundef 8) #23
  %.not9 = icmp eq i32 %4, 0
  br i1 %.not9, label %18, label %5

5:                                                ; preds = %3
  %6 = tail call i32 @strncasecmp(ptr noundef %0, ptr noundef nonnull @.str.114, i64 noundef 8) #23
  %.not10 = icmp eq i32 %6, 0
  br i1 %.not10, label %18, label %7

7:                                                ; preds = %5
  %8 = tail call i32 @strncasecmp(ptr noundef %0, ptr noundef nonnull @.str.115, i64 noundef 8) #23
  %.not11 = icmp eq i32 %8, 0
  br i1 %.not11, label %18, label %9

9:                                                ; preds = %7
  %10 = tail call i32 @strncasecmp(ptr noundef %0, ptr noundef nonnull @.str.116, i64 noundef 2) #23
  %.not12 = icmp eq i32 %10, 0
  br i1 %.not12, label %18, label %11

11:                                               ; preds = %9
  %12 = tail call i32 @strncasecmp(ptr noundef %0, ptr noundef nonnull @.str.117, i64 noundef 6) #23
  %.not13 = icmp eq i32 %12, 0
  br i1 %.not13, label %18, label %13

13:                                               ; preds = %11
  %14 = tail call i32 @strncasecmp(ptr noundef %0, ptr noundef nonnull @.str.118, i64 noundef 5) #23
  %.not14 = icmp eq i32 %14, 0
  br i1 %.not14, label %18, label %15

15:                                               ; preds = %13
  %16 = tail call i32 @strncasecmp(ptr noundef %0, ptr noundef nonnull @.str.119, i64 noundef 4) #23
  %.not15 = icmp eq i32 %16, 0
  br i1 %.not15, label %18, label %17

17:                                               ; preds = %15
  tail call void (ptr, ...) @cli_dbgmsg(ptr noundef nonnull @.str.120, ptr noundef %0) #21
  br label %18

18:                                               ; preds = %1, %3, %5, %7, %9, %11, %13, %15, %17
  %.0 = phi i32 [ 0, %17 ], [ 1, %15 ], [ 1, %13 ], [ 1, %11 ], [ 1, %9 ], [ 1, %7 ], [ 1, %5 ], [ 1, %3 ], [ 1, %1 ]
  ret i32 %.0
}